; Function Attrs: mustprogress ssp uwtable
define void @_ZN6open3d7utility17SetVerbosityLevelENS0_14VerbosityLevelE(i32 noundef %0) local_unnamed_addr #4 personality ptr @__gxx_personality_v0 {
  %2 = load atomic i8, ptr @_ZGVZN6open3d7utility6Logger11GetInstanceEvE8instance acquire, align 8
  %3 = icmp eq i8 %2, 0
  br i1 %3, label %4, label %_ZN6open3d7utility6Logger11GetInstanceEv.exit, !prof !50

4:                                                ; preds = %1
  %5 = tail call i32 @__cxa_guard_acquire(ptr nonnull @_ZGVZN6open3d7utility6Logger11GetInstanceEvE8instance) #34
  %.not.i = icmp eq i32 %5, 0
  br i1 %.not.i, label %_ZN6open3d7utility6Logger11GetInstanceEv.exit, label %6

6:                                                ; preds = %4
  invoke void @_ZN6open3d7utility6LoggerC1Ev(ptr noundef nonnull align 8 dereferenceable(8) @_ZZN6open3d7utility6Logger11GetInstanceEvE8instance)
          to label %7 unwind label %9

7:                                                ; preds = %6
  %8 = tail call i32 @__cxa_atexit(ptr nonnull @_ZN6open3d7utility6LoggerD2Ev, ptr nonnull @_ZZN6open3d7utility6Logger11GetInstanceEvE8instance, ptr nonnull @__dso_handle) #34
  tail call void @__cxa_guard_release(ptr nonnull @_ZGVZN6open3d7utility6Logger11GetInstanceEvE8instance) #34
  br label %_ZN6open3d7utility6Logger11GetInstanceEv.exit

9:                                                ; preds = %6
  %10 = landingpad { ptr, i32 }
          cleanup
  tail call void @__cxa_guard_abort(ptr nonnull @_ZGVZN6open3d7utility6Logger11GetInstanceEvE8instance) #34
  resume { ptr, i32 } %10

_ZN6open3d7utility6Logger11GetInstanceEv.exit:    ; preds = %1, %4, %7
  %11 = load ptr, ptr @_ZZN6open3d7utility6Logger11GetInstanceEvE8instance, align 8, !tbaa !42
  %12 = getelementptr inbounds nuw i8, ptr %11, i64 32
  store i32 %0, ptr %12, align 8, !tbaa !47
  ret void
}